(dp0
S'8ce2f0ac07f7d1961e395a526ca35a3a'
p1
(I0
I0
tp2
sS'f677a164b16096fc2eb3af86694da8ac'
p3
(I268
I3449
tp4
sS'15bfa35315fb53d6d2116e103e744db2'
p5
(I492
I4405
tp6
sS'7eab4a711ed86375a854684f4330ea81'
p7
(I4989
I20396
tp8
sS'5041977a41240fa87c06e5d98500921a'
p9
(I788
I6781
tp10
sS'751221978067db4e4cecef07c1763f2c'
p11
(I1100
I8940
tp12
sS'b88171637fa04a302e94b14402f2793a'
p13
(I2063
I11223
tp14
sS'146bcb261292b6ae2c3416fdc3ed5c81'
p15
(I2063
I11223
tp16
sS'f5abf96f244c876d17ecf69863cb0abb'
p17
(I2068
I11353
tp18
sS'b9114397ca060ce9de73d8073b0c53c3'
p19
(I2103
I11504
tp20
sS'cb9088be965f6ef60167811b4911d083'
p21
(I2239
I12488
tp22
sS'5ebce49735b6f475f3825250bb0fb3cd'
p23
(I2404
I13461
tp24
sS'cede0dea9347713bc0b3b0aaf4e42020'
p25
(I2404
I13461
tp26
sS'fe4b7d846a74dd02625de0731600d83e'
p27
(I2437
I13614
tp28
sS'7ef4b07863703ef906a27c6cc1ef2cf1'
p29
(I2824
I14776
tp30
sS'16ff60e6cd1df70dcfb2de4755089823'
p31
(I4591
I17740
tp32
sS'a0a70d414e0a11076419e96dfb3c84f4'
p33
(I4824
I19677
tp34
sS'9faf9af6f25373fdc722be0e07938a00'
p35
(I4848
I19879
tp36
sS'833f9711a4e415b8398c8ddffbeac33d'
p37
(I779
I6673
tp38
sS'2a51019ad188fecb32cc429c4b4895ed'
p39
(I5212
I21928
tp40
sS'20bf285bfb69897524b8c444a8ca197d'
p41
(I5381
I22798
tp42
sS'381e57c515bd710858e0c452cd75b10f'
p43
(I24165
I109536
tp44
sS'0dc2a3cd1ce3422a2c49942e9f44b734'
p45
(I5801
I24436
tp46
sS'afbd211ae593ffa10484bfef62b7ba81'
p47
(I5967
I24993
tp48
sS'becac0d89a5fe1fd565ace075ad52740'
p49
(I6064
I25557
tp50
sS'e15e1e0e5c33ec5e986f814f5839a1de'
p51
(I6131
I26044
tp52
sS'3b05acf07f6f03715ab66eaf2a3b5d04'
p53
(I6217
I26546
tp54
sS'45b43d19938acc00839f2725d467da22'
p55
(I6436
I27646
tp56
sS'255067d6d118268c76e64f7887ba3dd0'
p57
(I6520
I28360
tp58
sS'ef8f4e9239e3511c06872ab3cd2f353d'
p59
(I6643
I29246
tp60
sS'7cc67e70a6125646ca3fc1a96b70736c'
p61
(I6977
I30939
tp62
sS'3832ba1572727deb24c4969ac0b2587d'
p63
(I7253
I33444
tp64
sS'f4c9374590b0197811a990a727ce50f5'
p65
(I57758
I250680
tp66
sS'5818f51ee3e32cd9a47c2d21c5170dac'
p67
(I7472
I34457
tp68
sS'534e590a218b8100bb45208cfbdf163b'
p69
(I7615
I35519
tp70
sS'3373639b1d50d755c03c02cd9b93b720'
p71
(I37075
I166374
tp72
sS'4df797da477178b8c07b7f67055fe1b6'
p73
(I8042
I37599
tp74
sS'e2e77ba41052044b90d7021d9bff9061'
p75
(I8042
I37599
tp76
sS'95290012090969ed4e58ab1a9ff6c342'
p77
(I8573
I39554
tp78
sS'0f87a4b88aabdd50afb3f657d306bffe'
p79
(I8667
I41114
tp80
sS'2fe79a680117c0471f04f0e15574ff32'
p81
(I8747
I41776
tp82
sS'4877dddcc26b8768206f3adb2371193c'
p83
(I64671
I282404
tp84
sS'1110e5330c38f208b2887f55f7296235'
p85
(I8805
I42197
tp86
sS'4e3cbdeeccfe7c5dd61d0b3b73444d69'
p87
(I9031
I43084
tp88
sS'e9e629c222e25a1146f72c75c230fb03'
p89
(I9254
I45794
tp90
sS'21a3849c161a739c6c7b557ca39ea04e'
p91
(I9291
I46002
tp92
sS'330afc0d53fa05e546fef9ec5ee76d3d'
p93
(I38747
I173817
tp94
sS'36b2593435e1bed13eb138c1973c13ed'
p95
(I9525
I47582
tp96
sS'b45f9ab47566e706a81d45ef5adc981c'
p97
(I58394
I254637
tp98
sS'96f5135be8b958006946821b351a1d80'
p99
(I10136
I50098
tp100
sS'705094019aa3bee64efd10647d102ecd'
p101
(I10176
I50348
tp102
sS'6904623191a2ed14d61525633a5f5745'
p103
(I10255
I50733
tp104
sS'7ef07ccaeb4ab25bb792f4c1261fa6a0'
p105
(I10361
I51590
tp106
sS'5669fee8a5a0f3379e0bf9821d06b886'
p107
(I10780
I53476
tp108
sS'c13338b72c5ef7d5dfd2dbedbd381e35'
p109
(I10805
I53649
tp110
sS'363635bbdda24724ed7bfc474f53bb88'
p111
(I10978
I54740
tp112
sS'696b5f0612f4c6249b28c0ea69bb5705'
p113
(I11194
I56093
tp114
sS'49d61fe719d98c6cbedbd430945336b4'
p115
(I11353
I57176
tp116
sS'74e478007dff9ad57d9457ad742d56af'
p117
(I11518
I58244
tp118
sS'57a2725f48fd55100e4e8d72f995405c'
p119
(I11793
I59803
tp120
sS'0dc5cd49689cd42b3b9e0786b59165bc'
p121
(I12102
I60940
tp122
sS'22c11b9f7e8e94f3d11bdcda976bbc63'
p123
(I12131
I61263
tp124
sS'54ae8d1820c6f6c78ca29313dc0c0428'
p125
(I12131
I61263
tp126
sS'9e09ba7e55b90376e332cd129de54532'
p127
(I12131
I61263
tp128
sS'ca59762fccbeb8a73f349c99a256a220'
p129
(I12765
I62804
tp130
sS'1d5c9e2c52e7810c9d4bab6a1ed0d73f'
p131
(I12900
I63862
tp132
sS'04f61066fd67af6ab686e6b1d7501b72'
p133
(I13267
I65717
tp134
sS'5b199184b468e2051dfcc8427b0d3f8f'
p135
(I13403
I66786
tp136
sS'b9b2af931646cc70cfe092af855a34d5'
p137
(I13597
I68072
tp138
sS'ff3b5da078fbccd7a0fae17c0f14192e'
p139
(I13623
I68135
tp140
sS'0e705bd5681da1f5670ddfa14ef21aa8'
p141
(I13806
I69148
tp142
sS'4271744f41e075073f75870f64e15ed9'
p143
(I65458
I285303
tp144
sS'd7949c389fdaad77bc556e651095ebce'
p145
(I14023
I70570
tp146
sS'c330c997feb912afba713bad6bba2dcb'
p147
(I14043
I70640
tp148
sS'11bc4f9bbb9a6a7f1e990281c7e4b29d'
p149
(I14380
I71793
tp150
sS'd1ec90379b8333663fec536e79fe29f2'
p151
(I14465
I72330
tp152
sS'2213767ab6ecc93aa98e0d49cfab5baa'
p153
(I14569
I73347
tp154
sS'24620ebc09712f80a6ab85b877693691'
p155
(I14714
I74301
tp156
sS'94caf93e855189a05d5b447b0a283b97'
p157
(I14879
I75455
tp158
sS'6a377f646423ce1136bce7906e225e6a'
p159
(I37283
I167590
tp160
sS'd87532d35960ba9d03bae61c74c2bd1d'
p161
(I15044
I76920
tp162
sS'e475c2e9671ef0fc3f2886df571e89ab'
p163
(I15314
I77905
tp164
sS'9aa58b658935d017e0827d1b42e75596'
p165
(I15463
I78931
tp166
sS'9fccd14981cc04ff92a399dbfee1a0b7'
p167
(I15596
I79662
tp168
sS'f19aeb556421957a652607f44cd0618d'
p169
(I15741
I80505
tp170
sS'43d7f732e9da60bc1d8f13294c3a3f1c'
p171
(I16161
I81551
tp172
sS'2b008cd4452e21f9e8ca50417c27de2a'
p173
(I16452
I82682
tp174
sS'f7f54bc11f4d10c7fec58a38f796c7d3'
p175
(I16829
I84112
tp176
sS'eca9ffb3d1a2e0ccea0e5f4a28d80e32'
p177
(I18253
I86483
tp178
sS'242901098f6f77364668c3a2466a6d01'
p179
(I18425
I87406
tp180
sS'c5c76c3a14f42b09a61cfae383f4e867'
p181
(I18487
I87647
tp182
sS'4f853858087bc7aedc4533f70983df45'
p183
(I18655
I88116
tp184
sS'7264d53720998dc6bab12307b0bcb3cb'
p185
(I53482
I232269
tp186
sS'd922601b401d0a5c72e4e0fe232f039a'
p187
(I18749
I89122
tp188
sS'349e5b801890b1b707635e4970958102'
p189
(I19053
I90400
tp190
sS'c297b3ecf103e67237c8a42659a178e3'
p191
(I19053
I90400
tp192
sS'296a65301cfe2b61269c0d2d11922433'
p193
(I19174
I91214
tp194
sS'6df62259a7da8075617a9ff97bb265c1'
p195
(I19454
I92799
tp196
sS'36ed860abcea25a27515046356190a6d'
p197
(I58683
I255887
tp198
sS'810f2877bbc00c8a4f3ed47278b639d0'
p199
(I19475
I92899
tp200
sS'1d47415a2fc388ac89b5ecda8a95554c'
p201
(I19548
I93302
tp202
sS'815c739d16821a8df42594567ea83862'
p203
(I19676
I93719
tp204
sS'05c65e6d23acd96bcabdd6dfd3ce6dd6'
p205
(I19881
I94364
tp206
sS'4e100982097898ed43731519079b2624'
p207
(I19899
I94507
tp208
sS'4dc094fb37152396199cb951207bb75d'
p209
(I20236
I95617
tp210
sS'6c712b47c8e9db4dd7f0f1725045f7bc'
p211
(I20333
I96224
tp212
sS'415e74d3bc6d91f2a623c34b596c1703'
p213
(I20385
I96489
tp214
sS'a882cbfa5477e22a082c5b0c0c288dfb'
p215
(I28315
I131984
tp216
sS'07011b7672dfa64896c4c7b1b41ef95d'
p217
(I20464
I97210
tp218
sS'845b3a9eb8536c14325e4c16db628e2f'
p219
(I59489
I260222
tp220
sS'a143ec21ceafdfef310420026306c32b'
p221
(I21118
I99379
tp222
sS'39fbe20fc952cd15ad7c963a9d7f01a5'
p223
(I28116
I130916
tp224
sS'677c3fa6f2bf633912df4f0b8ebf0eee'
p225
(I29524
I137912
tp226
sS'29498c0afa48a739013e2a3f8c1e2937'
p227
(I22222
I101108
tp228
sS'b286c3c4fcba5c03aabaf82c11a6f7c7'
p229
(I59522
I260749
tp230
sS'1fb12bfda490189c83e727a788c065ce'
p231
(I22452
I101948
tp232
sS'5d37a3f93178969523645e39a0cc8765'
p233
(I22680
I103162
tp234
sS'e5e6a7021778224bf3668daa559ebf51'
p235
(I32427
I150821
tp236
sS'15cf31e89178b2894ea38869d8c6c75e'
p237
(I22710
I103359
tp238
sS'084693fa3e344e2b5adde98331f2f549'
p239
(I34958
I161463
tp240
sS'e1be97bb60f62f1399a95c9fcb8f85d7'
p241
(I35152
I161774
tp242
sS'd4c7789534da23ef33ab27b410132492'
p243
(I23491
I105434
tp244
sS'0e91b48c555a06bb5c3517fad35fd745'
p245
(I23817
I106579
tp246
sS'1cde167d4ef11594215f873acdbe6f50'
p247
(I23859
I106702
tp248
sS'7770144c0f68bb53d65893ef9f05c343'
p249
(I24050
I108414
tp250
sS'6be49c4e42b6df04b3dd76c14b6cdacc'
p251
(I24158
I109451
tp252
sS'2045de9e2f46e9dad1bd91c14aa85d0b'
p253
(I5774
I24298
tp254
sS'da0d0e3527b931bb0bc6f5435003ea2a'
p255
(I24304
I110220
tp256
sS'44831f81bb84afa6999392849b85b4f4'
p257
(I24338
I110396
tp258
sS'01af1cc8a0aad1ba7d237d1144338bc6'
p259
(I24435
I111742
tp260
sS'862463c413570ea28c694a9fa06a6599'
p261
(I24461
I111813
tp262
sS'fd4b49dd6437c1f36958c0dd4abfa400'
p263
(I24549
I112122
tp264
sS'f42e7c6f26cf3e92767b18b9f38db0dc'
p265
(I24693
I112760
tp266
sS'cc999c5dca2217ae1fa0d417f33fadca'
p267
(I24746
I113009
tp268
sS'05f97ea55282c4f81fce6fa5751a7ef4'
p269
(I24758
I113075
tp270
sS'4373deaa5102d1669f5b6d9acc87c472'
p271
(I24765
I113125
tp272
sS'c0c92b0debe3dc52396f9441d3b7bd4d'
p273
(I24845
I113652
tp274
sS'1490b985d1bd935ac5973e648c207955'
p275
(I24845
I113652
tp276
sS'ba60ddef7a784f9d15793b264e107098'
p277
(I24912
I114009
tp278
sS'ba8a0a7575e75d6c14167005020403a6'
p279
(I54984
I240241
tp280
sS'6d5873bedcf09d9753c3c908ddf452af'
p281
(I25088
I114902
tp282
sS'9120e3d36669937b08310ac9b2523550'
p283
(I25195
I115831
tp284
sS'b0d2501202d406fd07ab84db6f751543'
p285
(I25371
I116383
tp286
sS'41c74bff447d5397d817074168496fa9'
p287
(I25414
I116547
tp288
sS'f2955b34a4a459d9c328661444f4d7a0'
p289
(I25540
I117715
tp290
sS'4905cc7a1396110c1a635c4e7b023de2'
p291
(I25563
I117830
tp292
sS'3bb08fb1b8b3d0d35bd70e1753840d2c'
p293
(I25726
I118522
tp294
sS'717be9f4b9f1232c9302e3e3eff2239c'
p295
(I25726
I118522
tp296
sS'60b7e6f9392c51d9c5ac9322ffd55e34'
p297
(I26056
I120261
tp298
sS'6929db7b4f31f715eb511d844a011b38'
p299
(I26129
I121105
tp300
sS'2791aad00710bd046c2358e36687f9e0'
p301
(I26159
I121234
tp302
sS'7884fd1f622ff26469115316e9daf9eb'
p303
(I26648
I122804
tp304
sS'4753ee601fd03f972db901b5c335d3c0'
p305
(I26648
I122804
tp306
sS'e97aa16d588d4b38df68c7eea39609ea'
p307
(I26874
I124237
tp308
sS'3d363c460b501243b3cc01c8ef8c7e54'
p309
(I27123
I125495
tp310
sS'066df9d2383e006d1bf69f0e27732988'
p311
(I27378
I126560
tp312
sS'3ddc3d28ab03243984730b5a09efeb48'
p313
(I27707
I128031
tp314
sS'd7494a26e610ec1f0b0171c755d4fef9'
p315
(I27980
I129210
tp316
sS'db557d7d8315adfe66fa285ee2d5876a'
p317
(I27414
I126884
tp318
sS'7223f159cf51aa7dfebf0eabe85c79fe'
p319
(I28206
I131289
tp320
sS'f9aaf0e979eda888db209a8f457ce7d7'
p321
(I28217
I131485
tp322
sS'2aef5fe58e8206aefd313324178696c9'
p323
(I28244
I131599
tp324
sS'2d7492af9cb4952640c2a7c7bdfd0510'
p325
(I20459
I97168
tp326
sS'459cac479aa5d1b353a8700668c284d2'
p327
(I28427
I133373
tp328
sS'11a689d54c4af2394bc91b4003e527f3'
p329
(I28702
I134159
tp330
sS'1db47c5c402644d97c51e020d472dffd'
p331
(I28785
I134719
tp332
sS'33de079e6e90ae26e67de06ac1db9bdb'
p333
(I28829
I134950
tp334
sS'3be3cfa5d33e6eb8fe57736317fed8d3'
p335
(I28850
I135072
tp336
sS'9286dd073b9ef429c97ba2426f626f3c'
p337
(I29004
I135841
tp338
sS'd06938831492a48c70d30cebf98f7376'
p339
(I29004
I135841
tp340
sS'9e9ed6f48519eee134596bbcd3274364'
p341
(I29116
I136162
tp342
sS'd912c51b671d209edc6672fe203dd345'
p343
(I29123
I136201
tp344
sS'419453e20c2a73147960a6602d014b46'
p345
(I29364
I136996
tp346
sS'46bce687f790f4688a582da097b604ef'
p347
(I22035
I100560
tp348
sS'8d3d3a9d09bea220b5a99945f57c2910'
p349
(I29729
I139052
tp350
sS'cd0da710afd5760211b51fccf55cebc0'
p351
(I29842
I139638
tp352
sS'e86428603dee9d01aa5f7abebb851ef7'
p353
(I29931
I140363
tp354
sS'53a6d1bb405f70090c273ae932b9d37b'
p355
(I60214
I263475
tp356
sS'3144ae112ee6cda80d9fa54c824f54db'
p357
(I30138
I141455
tp358
sS'62fce7e595e9d3b9255ba68bc0ca4f67'
p359
(I30381
I142501
tp360
sS'15510d987ae1b8906090db1a62efc5f0'
p361
(I30560
I144106
tp362
sS'255291fff1e306d3332da3464011ee91'
p363
(I30772
I145127
tp364
sS'4061fe4e70fa836d2e5810165166ddcb'
p365
(I30892
I145770
tp366
sS'064486fb93ed6edc4f4f1e67e63f80ca'
p367
(I30959
I146132
tp368
sS'99e4aebbe85cd43b556eb49858542e6d'
p369
(I31181
I146841
tp370
sS'780a57a7ecdb4ecbdcaf20e0435de9ff'
p371
(I31342
I147330
tp372
sS'0868068f24a5eeb517141bb58e531738'
p373
(I31415
I147790
tp374
sS'f3ca834609deae606515ff1f9a13e16c'
p375
(I61049
I268072
tp376
sS'8de2105c1c2af55efadd26c38d57a6d7'
p377
(I31445
I148019
tp378
sS'98d2fadb624ce637f63d00e46aca5fc7'
p379
(I31458
I148171
tp380
sS'5f60f27c9b62684dd18f4b3c58e6ce54'
p381
(I31662
I149128
tp382
sS'60f601460f83a4adac3ee69528bea01c'
p383
(I31665
I149179
tp384
sS'0cd4619d5395966996a64d0dd25ab76a'
p385
(I31948
I149920
tp386
sS'a127f04a582d64d2fc3a1d14390eccc5'
p387
(I22694
I103250
tp388
sS'bf64d7a11ad98d18951a96b2bd82f4f2'
p389
(I33213
I152796
tp390
sS'3436004077b339b79d9df8e7b057b7cf'
p391
(I33399
I153775
tp392
sS'47b9e169b20239e563053af72876a791'
p393
(I33472
I154186
tp394
sS'a959267774764d936d94ee292e992fa0'
p395
(I33475
I154219
tp396
sS'5f29914eb034d37c58a4c06e8eae0bc9'
p397
(I33496
I154384
tp398
sS'8a7257f3de4a861a5f4ff05211c23f2a'
p399
(I33665
I154840
tp400
sS'7cfe79b18ed7822cea15381e189cac9a'
p401
(I52110
I225797
tp402
sS'5c7304d9543740c317a0d1e0b692b890'
p403
(I33869
I155538
tp404
sS'80d92cf1ea27e001428c05bed7de7aae'
p405
(I33954
I155938
tp406
sS'2f5b4f04c75499f11f8d5bf10f1508ee'
p407
(I34002
I156093
tp408
sS'611d21bbf8ba18cfedb76104c117ff76'
p409
(I34267
I156975
tp410
sS'b7fcb87cfc30bd734d271b3c2a00a1ce'
p411
(I34340
I157143
tp412
sS'e058844aedc87d48d3e87776dee5b348'
p413
(I34477
I158056
tp414
sS'60959f926480ec1e4a3c8c41071779a1'
p415
(I34485
I158143
tp416
sS'e1b03a25e9d639ce79cd3779e117b60e'
p417
(I34511
I158235
tp418
sS'5c83a98f3d8627a98496d9bbcbb97c3f'
p419
(I34641
I158581
tp420
sS'1cddde52f7a410427df4975fd837906f'
p421
(I34656
I158661
tp422
sS'47fe62a96d93fd6ba25efb25fe7e7069'
p423
(I34796
I160311
tp424
sS'7aa419002c37d211fecd08bcbb3fc714'
p425
(I34881
I160594
tp426
sS'49bdb7f4175a6af1a20fb87610e938dd'
p427
(I23184
I104887
tp428
sS'25870981b463d9b45361330190d60f53'
p429
(I35276
I162072
tp430
sS'0394cf313b58ea16e3776dab47042e5f'
p431
(I36641
I164429
tp432
sS'd55a840544dcbdaa40a72afa5ed94e2f'
p433
(I36790
I164897
tp434
sS'11f686a3a2db1c5974e73d07088b4045'
p435
(I36821
I165007
tp436
sS'fde67e0b9c8072fcaa52c95f0964619f'
p437
(I62230
I271767
tp438
sS'130f9ea58dcdaec12e6faf6d51aef8e9'
p439
(I36910
I165425
tp440
sS'b29383409886a8f4525b52eb55c7b2e7'
p441
(I7910
I36545
tp442
sS'0ef219e0b58829a60b2332516489e95e'
p443
(I37115
I166529
tp444
sS'54db3923f033e1dd6a82222aa2604ab9'
p445
(I37251
I167411
tp446
sS'7406e65cbf8858b9260f36676efdd590'
p447
(I37282
I167520
tp448
sS'596e9d456290a697768556b7138a6785'
p449
(I14972
I75908
tp450
sS'74da671513474c0630cb254c3abc434f'
p451
(I37370
I168142
tp452
sS'43fd2e9d7b3c55435a849de5c5c43f1b'
p453
(I37389
I168302
tp454
sS'b4bb7a11967b660ecc4f4ef1cf6b6827'
p455
(I37615
I169316
tp456
sS'025caf45aaec8db680b23464b930e8bc'
p457
(I37712
I169627
tp458
sS'fcd1dd36faf537bc4bbe81f2071f8a0b'
p459
(I37768
I169868
tp460
sS'078242a7701728828d6d98cd42f3f48e'
p461
(I37806
I169969
tp462
sS'75470794aa1249218c8d5699018560ab'
p463
(I37884
I170399
tp464
sS'c14f5f6eb08d47b72bc8dae3187aad75'
p465
(I37893
I170452
tp466
sS'4392ce5936db3591f713b0171ffd0e17'
p467
(I37931
I170632
tp468
sS'153a084dc32a339d356619232f3dea59'
p469
(I38066
I171140
tp470
sS'52bf2acfb0403cd5557d7b77a4de93f8'
p471
(I38191
I171297
tp472
sS'd6f0e6c74ed8fb8972f704f046daf3e1'
p473
(I38191
I171297
tp474
sS'5a462f6ae94aa6db98cc3998694cf051'
p475
(I38196
I171317
tp476
sS'89e28784c0c0c2236124a934f54c4e04'
p477
(I38201
I171345
tp478
sS'201f19d94e26eb3737dea8ae5141dff3'
p479
(I38475
I172448
tp480
sS'93ba37e2c4ecdf213ac11c17ad8f6659'
p481
(I62604
I273155
tp482
sS'215dc25e9f73daf636a93294e32b4f56'
p483
(I9291
I46002
tp484
sS'7558c64da7ef50a8213d98943238535d'
p485
(I38956
I174476
tp486
sS'439c1284e6c3d9000f1ac2ac4df45641'
p487
(I39456
I175918
tp488
sS'b4f536c8c69f0fa770a87a84df93ff00'
p489
(I39690
I176543
tp490
sS'454904ba35745fd0499f229c4b3e851c'
p491
(I39805
I177669
tp492
sS'fa294b42e0f15881bbb29812b5f51be8'
p493
(I53149
I230660
tp494
sS'aa36a339f30cc056a8137180cdf5d4ef'
p495
(I39820
I177749
tp496
sS'9cd2cf92e17ea5ff443b5fdfc115f651'
p497
(I40037
I178683
tp498
sS'97876a6b94536deb4c5583f9a756ab72'
p499
(I40171
I179457
tp500
sS'9343a615899a7fbd94403d228463f26d'
p501
(I40286
I179787
tp502
sS'a3e92f89da25918c2092124995357413'
p503
(I40323
I179875
tp504
sS'e669e24fa419cfa4dc1eac97179183ff'
p505
(I40338
I180022
tp506
sS'ff135897af8e6cf845783f70df56a7ca'
p507
(I40586
I180937
tp508
sS'a8f097700706d240901444bd6bb1813f'
p509
(I41877
I182767
tp510
sS'01b8aa99619675cae4355aa8af09bd12'
p511
(I41877
I182767
tp512
sS'fe3e3e680ba647137f5b47fa931072b3'
p513
(I42093
I183383
tp514
sS'bca317bab408efbfb850aaf055948e47'
p515
(I42187
I184545
tp516
sS'623a80d7f12ba40bcfa0f02bda2623ba'
p517
(I42217
I184689
tp518
sS'b94c091c649fa9b7703a9f4a0ffb3304'
p519
(I42410
I186282
tp520
sS'6f234b4a1744e80f260f5684433f8598'
p521
(I42425
I186359
tp522
sS'7f752af96266ae83b25cdeaa89c215d5'
p523
(I42530
I186641
tp524
sS'5c23cde33163f2ad77c2e7a63814811b'
p525
(I62892
I275003
tp526
sS'9f4fe89a809a7e3225be7537ef0eba9c'
p527
(I42826
I187668
tp528
sS'491f51cc73a8136a66ecfa5349567d08'
p529
(I42921
I188173
tp530
sS'7a9c09bc841cddf568c10203a19bbee8'
p531
(I43302
I188992
tp532
sS'73d39b8188e8ce968192ca6e993a8f12'
p533
(I43514
I189532
tp534
sS'960c08e2ef0351c0bb50e4a109246880'
p535
(I43534
I189599
tp536
sS'90fa8913485a500e43dc5913aebdfaa6'
p537
(I43803
I190701
tp538
sS'40b8af7721fd105d0f5ecb5dad74a991'
p539
(I43808
I190727
tp540
sS'19a9a1af56559b5d299fae4cbac79a0f'
p541
(I43811
I190743
tp542
sS'ffe80a44666c1d12f61d0ad47499eb1e'
p543
(I43832
I190807
tp544
sS'88d1f93972e3c4462b85bc2fa7a9eaae'
p545
(I43850
I190896
tp546
sS'957dc24791e83a8f9facd669ebdfab40'
p547
(I44050
I191726
tp548
sS'b040812b4f65cc449ec54699ac764181'
p549
(I44118
I192192
tp550
sS'6a37a45999b35bbdd1bcac74f1243be3'
p551
(I44210
I192909
tp552
sS'2c3b9d59ebd9cb7abe4665754b1dbd9c'
p553
(I44275
I194252
tp554
sS'd30d7f616657ab089bade1ca4f8c62e7'
p555
(I44306
I194372
tp556
sS'c7f27de09c6515fd61f8c97cf79ac03a'
p557
(I44427
I195109
tp558
sS'bc8a55a8845ffd0706de85b6b0bb83b2'
p559
(I44566
I196105
tp560
sS'bcc524d52274108ab6a17810bb2ea695'
p561
(I44762
I197320
tp562
sS'e390535dd8f6e7b8f56c1f45aa365760'
p563
(I44916
I197979
tp564
sS'30d04c264517f10e8bc1ff1fa85cc171'
p565
(I45265
I198759
tp566
sS'1b5fce78bd79817764b781294eb57455'
p567
(I45452
I199869
tp568
sS'ae50c06b7772995439999108e8a94784'
p569
(I45715
I200502
tp570
sS'88933cee52db6f5c0c0f04d05fcaf614'
p571
(I45786
I201051
tp572
sS'a1b53e143dcf8699338077548906cb4b'
p573
(I45807
I201244
tp574
sS'1d607940be677919cd6f08e11c7bd36f'
p575
(I45817
I201286
tp576
sS'98235f2c239b119c166a549b19b52abf'
p577
(I46028
I202476
tp578
sS'9354e4ff65d876fbf0bc17ac650c7054'
p579
(I46057
I202755
tp580
sS'de0f088339eda6d3751034d06ea5845f'
p581
(I54078
I235761
tp582
sS'ebfe51690037acec510b6d10d4e58ea5'
p583
(I46434
I204272
tp584
sS'6b529117cf7016c19396748c42a0f874'
p585
(I46475
I204455
tp586
sS'705be15bea0164053700e4383a7fdd21'
p587
(I46615
I205198
tp588
sS'8bdcb9d1c008715c740c147dd0d5431c'
p589
(I48300
I207858
tp590
sS'd3fbad0a96845119d5dbd0e772c9fe53'
p591
(I48330
I207966
tp592
sS'530b257442c7d1b85bb7aa4208321024'
p593
(I48379
I208237
tp594
sS'b00d4a7efad641297d13e214a80a00c0'
p595
(I48548
I209097
tp596
sS'9cd9ebf839bf6c5989644b464423cf89'
p597
(I48604
I209257
tp598
sS'c3aff41dc71ebbf69d5e15c4f4584aee'
p599
(I48809
I210741
tp600
sS'1bf95c355c40496cf62e2edb570ae5de'
p601
(I48821
I210778
tp602
sS'c4aa5802bf8371620331a83d9de85951'
p603
(I48980
I211025
tp604
sS'0da3490da6546ea6fca9b9a2af035647'
p605
(I49164
I212005
tp606
sS'95de19ee54840e91536abf405e9b7114'
p607
(I49251
I212602
tp608
sS'c8991753dc81f5ec9bf1b8a7137aa6a2'
p609
(I49266
I212653
tp610
sS'85682013120aee589c5a11b83233ae44'
p611
(I49381
I214663
tp612
sS'd5cf33e5fbfcb2571c1bf03cfbb04872'
p613
(I49465
I215381
tp614
sS'd865063bfe8c8dd59b4d542b98e028d1'
p615
(I49502
I215638
tp616
sS'f18d7e12e5b5ea1ef326a3cb7ac93af0'
p617
(I49573
I216241
tp618
sS'491750704cf57fa285716407272c5a56'
p619
(I50380
I217646
tp620
sS'ddd2f9d10aab42acefcfb55ca5572bf7'
p621
(I50394
I217775
tp622
sS'ddee9ef7cd0ca20b9fb02c3e0fca4b6c'
p623
(I50820
I218753
tp624
sS'5ed6b96a534cbddc055adae2db5c29a2'
p625
(I51000
I219594
tp626
sS'a6d5c1dc7657c9fd0bfb87bdc0376355'
p627
(I23189
I104939
tp628
sS'ac9bec22ac3b5c33abd7299845283f9f'
p629
(I51008
I219630
tp630
sS'ca75d60a9ff2c98b575535212f338b6a'
p631
(I51237
I221049
tp632
sS'e998c03854f361533564e69eddc11a79'
p633
(I51437
I221946
tp634
sS'546e4438c2c05ac53b819a9596c280fc'
p635
(I51594
I222224
tp636
sS'd838b5d5c3cd62b2ad503b53cbc1f90f'
p637
(I51596
I222280
tp638
sS'52aaad35ca8012830a81d2f5a0799df7'
p639
(I51675
I222706
tp640
sS'52dc60bfa48c6f31d8ccf8124abe5339'
p641
(I51749
I223300
tp642
sS'465c6477241edb9523d5110ed98f151c'
p643
(I51753
I223370
tp644
sS'29b30793758d86f7106cd2f075389aeb'
p645
(I51770
I223456
tp646
sS'76b6283d82da63a42ae8a42e7da628ec'
p647
(I51848
I224297
tp648
sS'6e602536dfb72bb2c881fd25e6a92f46'
p649
(I51867
I224355
tp650
sS'8a72e07a0c26977ba7677614c1b215d3'
p651
(I51972
I224823
tp652
sS'7c33eec7eb8a8f25ce02dc6289c700c0'
p653
(I51982
I224857
tp654
sS'22eaab35cdaada21db43d2bbf100bfb5'
p655
(I33685
I154908
tp656
sS'c9eab45ae20780123384cceb6679946c'
p657
(I52125
I225833
tp658
sS'b84141d84804efbc9f6760f3df19b6b9'
p659
(I52250
I226325
tp660
sS'8a8285c8744a9c7f759a69a047437bba'
p661
(I52276
I226628
tp662
sS'aa9be0abea3bbfe94d50f68bc1499bac'
p663
(I52322
I226820
tp664
sS'554b6684f8ff7bd40b89696d70226ec9'
p665
(I52328
I226874
tp666
sS'ba3a6aef89897131e4301c9f3c91a76c'
p667
(I52482
I227762
tp668
sS'79a78fcce2bb2235c640192dbc842942'
p669
(I52498
I227823
tp670
sS'da115f57c51dfd62696dc17819c89c69'
p671
(I52506
I227911
tp672
sS'c7ad6c96208a6ecf83542130321074ad'
p673
(I52510
I228140
tp674
sS'871f9e9590b7102a0c5021ea30f388d2'
p675
(I52950
I229482
tp676
sS'7760f37131a13c5c0e9c4b7aa7f6ba5b'
p677
(I52960
I229581
tp678
sS'52d582497ed56183efaf715e3988b628'
p679
(I39808
I177697
tp680
sS'4de662e0e342a9ded396c7415de91a56'
p681
(I53229
I230998
tp682
sS'7ac5b529d83a03ad9dc192c32943fd0a'
p683
(I53266
I231213
tp684
sS'a85114b4570c74d002b9e86c64147146'
p685
(I51238
I221075
tp686
sS'15da7a31e797260960cbf04350085241'
p687
(I53488
I232296
tp688
sS'82afe6d0e442474805f60abaae33b16d'
p689
(I53626
I232821
tp690
sS'd098f4dc43d5c4768056c2dc8e1b5328'
p691
(I53900
I234238
tp692
sS'a837091210532f5e37916bba89654b2d'
p693
(I54066
I235652
tp694
sS'f97b2cf731bc770023edc37b30c95edd'
p695
(I46094
I203026
tp696
sS'054982b5dbe32c7becd47ff10c6c55be'
p697
(I54300
I236409
tp698
sS'e8bf104a939e52e12f33bbdd95625343'
p699
(I54300
I236515
tp700
sS'1e51e1f0ccf130be68b42fdaf201f40e'
p701
(I54409
I237396
tp702
sS'71c28d43f222e37b10a8bb25c32f769b'
p703
(I54562
I238519
tp704
sS'00db29c2dc1d87c8f07b72d753f7f2c0'
p705
(I54746
I239607
tp706
sS'dd44957ee74db121a397cab2b4080379'
p707
(I23964
I107507
tp708
sS'e827776a1e77b7bee940b485c5a4b5b7'
p709
(I55072
I240374
tp710
sS'07d5234843a6d62ae0db4dbcca854c43'
p711
(I55225
I241209
tp712
sS'a69ad6efd8ad2bdd8f82cff2a211246c'
p713
(I55447
I241835
tp714
sS'9f66d67322dbc62a5b6ff42867bc3fe1'
p715
(I55589
I242488
tp716
sS'9c66f13c8038d9cec5fd2a754d959c2f'
p717
(I55657
I242674
tp718
sS'25535d379c3ab7f473305ceace304e8c'
p719
(I55796
I243330
tp720
sS'3316270c2e911fc9ee491dbad386ed4e'
p721
(I55976
I243770
tp722
sS'7d907696792f2ffebe9eb6fc7448ee4f'
p723
(I56155
I244933
tp724
sS'9a2f7bc0677bca12725e25d12dae66d9'
p725
(I56710
I246249
tp726
sS'2f13a205f26f09c92c2d16633087e5e2'
p727
(I56855
I247168
tp728
sS'44be30b800f13facaed7cda823976bf1'
p729
(I56994
I247640
tp730
sS'f18213b41bb7311717493a931dc32296'
p731
(I57084
I248607
tp732
sS'a55163ccf6ce0bcd13c80ee7e5ceebcd'
p733
(I57140
I248735
tp734
sS'1b50196b8436f77669bdee925a2c4dfa'
p735
(I57564
I249808
tp736
sS'a28f8dd03948a47b1144ad5df6ccc483'
p737
(I7370
I33915
tp738
sS'81fd1684d9e48e7dfb3f389e4f0781db'
p739
(I26342
I121875
tp740
sS'1fb2a7e3c8ecb108e058848318a0f0c9'
p741
(I58008
I253256
tp742
sS'4024d8b2b57ca979fa44ed26161a09a9'
p743
(I58178
I253836
tp744
sS'bdf01756be5835c7085edc652e5e166b'
p745
(I58354
I254566
tp746
sS'e2f4c96d4eb90498ded022b3041fdbce'
p747
(I9770
I48713
tp748
sS'9f5ffb7a6a0173156193d52d831eaacf'
p749
(I58452
I254948
tp750
sS'515618c30574293240c3b346bdf04b5f'
p751
(I58455
I254996
tp752
sS'6300ad90bbcee31349ffa0a071ca2041'
p753
(I58568
I255256
tp754
sS'd9ee6cc0a5712fbe4c4d06465ab5b939'
p755
(I20095
I95184
tp756
sS'fb5fbb5cef0fd5f64d031b4a39bc4dec'
p757
(I58752
I256514
tp758
sS'42e11d56798c7d2eeb401905fd2c43be'
p759
(I58866
I257233
tp760
sS'361a5b6f327d74344f0f8c4cd7c27970'
p761
(I59184
I259065
tp762
sS'29cdd0433aa9743c6f26ef88e45dd465'
p763
(I59233
I259212
tp764
sS'83ff5fb44444da7a570577d8cca44cb9'
p765
(I20825
I98567
tp766
sS'b389d717abaff153ae94d2c27d58ce21'
p767
(I59503
I260251
tp768
sS'd320d1ee442f41642f67da69343c1b02'
p769
(I22416
I101677
tp770
sS'd9386a23b5f1350819c95546acd3183b'
p771
(I59640
I261149
tp772
sS'9329caf2caea60408f9991da66026e3d'
p773
(I60008
I261854
tp774
sS'48b8caa90e5481c56928e08fc100b8ad'
p775
(I60088
I262503
tp776
sS'61244154e362cece7e2d3c1139948bde'
p777
(I30138
I141455
tp778
sS'3c3a39da1dd56313156d3f6c1a37a66e'
p779
(I60426
I265073
tp780
sS'5f7456d58b542c50be788ae5f20326ba'
p781
(I60566
I265592
tp782
sS'bf4240deea2c8a777d129e48fcba470d'
p783
(I60683
I266490
tp784
sS'0540e2e4345d415ee85a6fc7314f4536'
p785
(I31432
I147895
tp786
sS'dd066409a86e37f7ba41ed32fad5fed9'
p787
(I61054
I268089
tp788
sS'4a9c6df0b335c37ef60611c592c3d154'
p789
(I61171
I268433
tp790
sS'1ded9ce40c1121d88ce1e1d3c5386d44'
p791
(I61205
I268577
tp792
sS'674e327673e224ce6f2c3bee658ac14a'
p793
(I61416
I269011
tp794
sS'b10435d02eb67851643ed7acc67f54c0'
p795
(I61473
I269121
tp796
sS'49182c21ede1dd536d3c2f380685c6df'
p797
(I61870
I270056
tp798
sS'fd5b4c852ce49baef7a888198853917c'
p799
(I62000
I270626
tp800
sS'638475f75a7f842d4ce14e690012a5cf'
p801
(I36895
I165352
tp802
sS'0a9e35fd6f123137d585a482f2484d8e'
p803
(I62448
I272523
tp804
sS'247785669a51715032b120566812f2a9'
p805
(I62554
I272841
tp806
sS'19c58d966c96158d1f04032878cba482'
p807
(I62570
I272916
tp808
sS'3441a01d2d0c4dfe72216b104a1eba95'
p809
(I38707
I173394
tp810
sS'6733b2957179358024cc5c493f28924a'
p811
(I62621
I273255
tp812
sS'af2306c5c15c438adf1fc01cb3bc7504'
p813
(I62623
I273268
tp814
sS'7ad34b9e9a8753cf98af03f04d195a45'
p815
(I62643
I273338
tp816
sS'278578135bfa56ada28f14085db9307b'
p817
(I62646
I273388
tp818
sS'c7a67d7a055820d3239f0e9d89ed8ef0'
p819
(I62789
I273985
tp820
sS'c6d5c510157faec583465dc2f2f7725d'
p821
(I57857
I251785
tp822
sS'cef70b072cca39a520d5c01b88810872'
p823
(I63100
I275992
tp824
sS'cefc4df9c5692bdf3d27d2195211c637'
p825
(I63261
I277006
tp826
sS'1575e7e1e9b9783b6376c7320dd7658d'
p827
(I63465
I277853
tp828
sS'ebe3d72e3e5ee4a2bb39ebe437ad1235'
p829
(I63480
I278026
tp830
sS'1e654a67e38ea72384781aa29ebda03e'
p831
(I64015
I279095
tp832
sS'a242dd9bb6e0125a8442b762d902ffd4'
p833
(I64104
I279560
tp834
sS'5ecd708037d82c153b3a591c20d38969'
p835
(I64112
I279589
tp836
sS'3de105c51ab70cbf61df2b36fb5a0fd4'
p837
(I64178
I280088
tp838
sS'f989ee76f94165c349bfebfe2f2e35f5'
p839
(I64297
I280477
tp840
sS'6c2da2695dc7f933c425842d9a0b364e'
p841
(I64568
I281925
tp842
sS'1615a8f53c2f674adbec6829fa99e52e'
p843
(I21095
I99287
tp844
sS'4687f84cb54bda94350da7f67e51a823'
p845
(I64943
I283590
tp846
sS'db0211bc38ed3c093992dc5128173054'
p847
(I64977
I283677
tp848
sS'a72ba4d0b435894d77745d8f3a779337'
p849
(I65210
I284343
tp850
sS'de7ec050322b2cb28f5f138747e937b5'
p851
(I65333
I285005
tp852
sS'e3a56670ae34a61476c1ebb5fab5fbd2'
p853
(I33965
I155979
tp854
sS'f09f1914be5fb34479264b1117b41508'
p855
(I65866
I286201
tp856
sS'c49d67f0ed88acd66484c5db337500a8'
p857
(I65939
I287333
tp858
sS'60d21d384ea52074f685904742b8cd4e'
p859
(I65995
I287637
tp860
sS'5ee4f3885e087a57d20ce4545d0f15a0'
p861
(I66270
I288661
tp862
sS'115e7b931be3d52d35cb8ce2da09a1d7'
p863
(I66385
I289527
tp864
sS'c9a9d8468da2e505fdc64bb0c7d90616'
p865
(I66562
I289818
tp866
sS'c302071b69a64d5107d2441036e48d9e'
p867
(I66652
I290040
tp868
sS'db0a258fa0f6e8b6e008ab9f62a4b58d'
p869
(I66720
I290302
tp870
sS'b4b03d72bcf52773ec6b7c0a91ccfe1e'
p871
(I66758
I291277
tp872
s.