(dp0
S'8ce2f0ac07f7d1961e395a526ca35a3a'
p1
(I0
I0
tp2
sS'f677a164b16096fc2eb3af86694da8ac'
p3
(I268
I3449
tp4
sS'15bfa35315fb53d6d2116e103e744db2'
p5
(I224
I1321
tp6
sS'7eab4a711ed86375a854684f4330ea81'
p7
(I157
I1123
tp8
sS'5041977a41240fa87c06e5d98500921a'
p9
(I13
I195
tp10
sS'751221978067db4e4cecef07c1763f2c'
p11
(I334
I3329
tp12
sS'b88171637fa04a302e94b14402f2793a'
p13
(I990
I3157
tp14
sS'146bcb261292b6ae2c3416fdc3ed5c81'
p15
(I0
I0
tp16
sS'f5abf96f244c876d17ecf69863cb0abb'
p17
(I6
I245
tp18
sS'b9114397ca060ce9de73d8073b0c53c3'
p19
(I36
I265
tp20
sS'cb9088be965f6ef60167811b4911d083'
p21
(I157
I1808
tp22
sS'5ebce49735b6f475f3825250bb0fb3cd'
p23
(I183
I1714
tp24
sS'cede0dea9347713bc0b3b0aaf4e42020'
p25
(I0
I0
tp26
sS'fe4b7d846a74dd02625de0731600d83e'
p27
(I35
I264
tp28
sS'7ef4b07863703ef906a27c6cc1ef2cf1'
p29
(I417
I2029
tp30
sS'16ff60e6cd1df70dcfb2de4755089823'
p31
(I1810
I3890
tp32
sS'a0a70d414e0a11076419e96dfb3c84f4'
p33
(I307
I3932
tp34
sS'9faf9af6f25373fdc722be0e07938a00'
p35
(I32
I654
tp36
sS'833f9711a4e415b8398c8ddffbeac33d'
p37
(I303
I2999
tp38
sS'2a51019ad188fecb32cc429c4b4895ed'
p39
(I270
I2999
tp40
sS'20bf285bfb69897524b8c444a8ca197d'
p41
(I179
I1770
tp42
sS'381e57c515bd710858e0c452cd75b10f'
p43
(I13
I344
tp44
sS'0dc2a3cd1ce3422a2c49942e9f44b734'
p45
(I39
I459
tp46
sS'afbd211ae593ffa10484bfef62b7ba81'
p47
(I173
I1379
tp48
sS'becac0d89a5fe1fd565ace075ad52740'
p49
(I105
I1011
tp50
sS'e15e1e0e5c33ec5e986f814f5839a1de'
p51
(I85
I1118
tp52
sS'3b05acf07f6f03715ab66eaf2a3b5d04'
p53
(I114
I1645
tp54
sS'45b43d19938acc00839f2725d467da22'
p55
(I279
I2747
tp56
sS'255067d6d118268c76e64f7887ba3dd0'
p57
(I111
I1609
tp58
sS'ef8f4e9239e3511c06872ab3cd2f353d'
p59
(I155
I2123
tp60
sS'7cc67e70a6125646ca3fc1a96b70736c'
p61
(I385
I3582
tp62
sS'3832ba1572727deb24c4969ac0b2587d'
p63
(I360
I4959
tp64
sS'f4c9374590b0197811a990a727ce50f5'
p65
(I322
I3591
tp66
sS'5818f51ee3e32cd9a47c2d21c5170dac'
p67
(I115
I944
tp68
sS'534e590a218b8100bb45208cfbdf163b'
p69
(I174
I2846
tp70
sS'3373639b1d50d755c03c02cd9b93b720'
p71
(I307
I4143
tp72
sS'4df797da477178b8c07b7f67055fe1b6'
p73
(I197
I2502
tp74
sS'e2e77ba41052044b90d7021d9bff9061'
p75
(I0
I0
tp76
sS'95290012090969ed4e58ab1a9ff6c342'
p77
(I601
I4730
tp78
sS'0f87a4b88aabdd50afb3f657d306bffe'
p79
(I153
I3556
tp80
sS'2fe79a680117c0471f04f0e15574ff32'
p81
(I125
I1873
tp82
sS'4877dddcc26b8768206f3adb2371193c'
p83
(I321
I3725
tp84
sS'1110e5330c38f208b2887f55f7296235'
p85
(I68
I771
tp86
sS'4e3cbdeeccfe7c5dd61d0b3b73444d69'
p87
(I272
I2115
tp88
sS'e9e629c222e25a1146f72c75c230fb03'
p89
(I270
I3752
tp90
sS'21a3849c161a739c6c7b557ca39ea04e'
p91
(I53
I770
tp92
sS'330afc0d53fa05e546fef9ec5ee76d3d'
p93
(I95
I1604
tp94
sS'36b2593435e1bed13eb138c1973c13ed'
p95
(I305
I3964
tp96
sS'b45f9ab47566e706a81d45ef5adc981c'
p97
(I71
I571
tp98
sS'96f5135be8b958006946821b351a1d80'
p99
(I484
I3921
tp100
sS'705094019aa3bee64efd10647d102ecd'
p101
(I60
I978
tp102
sS'6904623191a2ed14d61525633a5f5745'
p103
(I115
I1352
tp104
sS'7ef07ccaeb4ab25bb792f4c1261fa6a0'
p105
(I137
I2027
tp106
sS'5669fee8a5a0f3379e0bf9821d06b886'
p107
(I488
I4374
tp108
sS'c13338b72c5ef7d5dfd2dbedbd381e35'
p109
(I37
I697
tp110
sS'363635bbdda24724ed7bfc474f53bb88'
p111
(I225
I2855
tp112
sS'696b5f0612f4c6249b28c0ea69bb5705'
p113
(I327
I3607
tp114
sS'49d61fe719d98c6cbedbd430945336b4'
p115
(I247
I3312
tp116
sS'74e478007dff9ad57d9457ad742d56af'
p117
(I258
I3026
tp118
sS'57a2725f48fd55100e4e8d72f995405c'
p119
(I398
I4341
tp120
sS'0dc5cd49689cd42b3b9e0786b59165bc'
p121
(I410
I4103
tp122
sS'22c11b9f7e8e94f3d11bdcda976bbc63'
p123
(I30
I460
tp124
sS'54ae8d1820c6f6c78ca29313dc0c0428'
p125
(I0
I0
tp126
sS'9e09ba7e55b90376e332cd129de54532'
p127
(I0
I0
tp128
sS'ca59762fccbeb8a73f349c99a256a220'
p129
(I739
I4207
tp130
sS'1d5c9e2c52e7810c9d4bab6a1ed0d73f'
p131
(I209
I3365
tp132
sS'04f61066fd67af6ab686e6b1d7501b72'
p133
(I490
I4233
tp134
sS'5b199184b468e2051dfcc8427b0d3f8f'
p135
(I224
I2973
tp136
sS'b9b2af931646cc70cfe092af855a34d5'
p137
(I289
I3862
tp138
sS'ff3b5da078fbccd7a0fae17c0f14192e'
p139
(I31
I291
tp140
sS'0e705bd5681da1f5670ddfa14ef21aa8'
p141
(I246
I3238
tp142
sS'4271744f41e075073f75870f64e15ed9'
p143
(I287
I1937
tp144
sS'd7949c389fdaad77bc556e651095ebce'
p145
(I338
I4272
tp146
sS'c330c997feb912afba713bad6bba2dcb'
p147
(I28
I253
tp148
sS'11bc4f9bbb9a6a7f1e990281c7e4b29d'
p149
(I508
I2909
tp150
sS'd1ec90379b8333663fec536e79fe29f2'
p151
(I115
I1012
tp152
sS'2213767ab6ecc93aa98e0d49cfab5baa'
p153
(I133
I2225
tp154
sS'24620ebc09712f80a6ab85b877693691'
p155
(I234
I3247
tp156
sS'94caf93e855189a05d5b447b0a283b97'
p157
(I195
I2213
tp158
sS'6a377f646423ce1136bce7906e225e6a'
p159
(I8
I280
tp160
sS'd87532d35960ba9d03bae61c74c2bd1d'
p161
(I118
I2943
tp162
sS'e475c2e9671ef0fc3f2886df571e89ab'
p163
(I379
I3253
tp164
sS'9aa58b658935d017e0827d1b42e75596'
p165
(I259
I3502
tp166
sS'9fccd14981cc04ff92a399dbfee1a0b7'
p167
(I204
I2557
tp168
sS'f19aeb556421957a652607f44cd0618d'
p169
(I245
I2867
tp170
sS'43d7f732e9da60bc1d8f13294c3a3f1c'
p171
(I465
I1907
tp172
sS'2b008cd4452e21f9e8ca50417c27de2a'
p173
(I414
I4096
tp174
sS'f7f54bc11f4d10c7fec58a38f796c7d3'
p175
(I498
I4395
tp176
sS'eca9ffb3d1a2e0ccea0e5f4a28d80e32'
p177
(I1503
I4213
tp178
sS'242901098f6f77364668c3a2466a6d01'
p179
(I284
I3387
tp180
sS'c5c76c3a14f42b09a61cfae383f4e867'
p181
(I107
I1170
tp182
sS'4f853858087bc7aedc4533f70983df45'
p183
(I221
I1904
tp184
sS'7264d53720998dc6bab12307b0bcb3cb'
p185
(I309
I2916
tp186
sS'd922601b401d0a5c72e4e0fe232f039a'
p187
(I182
I3278
tp188
sS'349e5b801890b1b707635e4970958102'
p189
(I386
I3852
tp190
sS'c297b3ecf103e67237c8a42659a178e3'
p191
(I0
I0
tp192
sS'296a65301cfe2b61269c0d2d11922433'
p193
(I213
I3018
tp194
sS'6df62259a7da8075617a9ff97bb265c1'
p195
(I448
I4450
tp196
sS'36ed860abcea25a27515046356190a6d'
p197
(I320
I3739
tp198
sS'810f2877bbc00c8a4f3ed47278b639d0'
p199
(I33
I389
tp200
sS'1d47415a2fc388ac89b5ecda8a95554c'
p201
(I151
I1854
tp202
sS'815c739d16821a8df42594567ea83862'
p203
(I155
I1001
tp204
sS'05c65e6d23acd96bcabdd6dfd3ce6dd6'
p205
(I269
I3056
tp206
sS'4e100982097898ed43731519079b2624'
p207
(I22
I510
tp208
sS'4dc094fb37152396199cb951207bb75d'
p209
(I232
I1768
tp210
sS'6c712b47c8e9db4dd7f0f1725045f7bc'
p211
(I166
I2445
tp212
sS'415e74d3bc6d91f2a623c34b596c1703'
p213
(I87
I1545
tp214
sS'a882cbfa5477e22a082c5b0c0c288dfb'
p215
(I97
I691
tp216
sS'07011b7672dfa64896c4c7b1b41ef95d'
p217
(I9
I169
tp218
sS'845b3a9eb8536c14325e4c16db628e2f'
p219
(I514
I4435
tp220
sS'a143ec21ceafdfef310420026306c32b'
p221
(I35
I491
tp222
sS'39fbe20fc952cd15ad7c963a9d7f01a5'
p223
(I190
I3064
tp224
sS'677c3fa6f2bf633912df4f0b8ebf0eee'
p225
(I274
I2992
tp226
sS'29498c0afa48a739013e2a3f8c1e2937'
p227
(I222
I1731
tp228
sS'b286c3c4fcba5c03aabaf82c11a6f7c7'
p229
(I73
I1891
tp230
sS'1fb12bfda490189c83e727a788c065ce'
p231
(I68
I1150
tp232
sS'5d37a3f93178969523645e39a0cc8765'
p233
(I380
I3924
tp234
sS'e5e6a7021778224bf3668daa559ebf51'
p235
(I574
I3378
tp236
sS'15cf31e89178b2894ea38869d8c6c75e'
p237
(I25
I518
tp238
sS'084693fa3e344e2b5adde98331f2f549'
p239
(I169
I2771
tp240
sS'e1be97bb60f62f1399a95c9fcb8f85d7'
p241
(I242
I634
tp242
sS'd4c7789534da23ef33ab27b410132492'
p243
(I395
I1577
tp244
sS'0e91b48c555a06bb5c3517fad35fd745'
p245
(I449
I3741
tp246
sS'1cde167d4ef11594215f873acdbe6f50'
p247
(I53
I741
tp248
sS'7770144c0f68bb53d65893ef9f05c343'
p249
(I178
I3098
tp250
sS'6be49c4e42b6df04b3dd76c14b6cdacc'
p251
(I196
I3261
tp252
sS'2045de9e2f46e9dad1bd91c14aa85d0b'
p253
(I421
I3062
tp254
sS'da0d0e3527b931bb0bc6f5435003ea2a'
p255
(I227
I2516
tp256
sS'44831f81bb84afa6999392849b85b4f4'
p257
(I57
I756
tp258
sS'01af1cc8a0aad1ba7d237d1144338bc6'
p259
(I166
I2812
tp260
sS'862463c413570ea28c694a9fa06a6599'
p261
(I32
I186
tp262
sS'fd4b49dd6437c1f36958c0dd4abfa400'
p263
(I122
I1282
tp264
sS'f42e7c6f26cf3e92767b18b9f38db0dc'
p265
(I208
I2304
tp266
sS'cc999c5dca2217ae1fa0d417f33fadca'
p267
(I81
I674
tp268
sS'05f97ea55282c4f81fce6fa5751a7ef4'
p269
(I16
I155
tp270
sS'4373deaa5102d1669f5b6d9acc87c472'
p271
(I12
I215
tp272
sS'c0c92b0debe3dc52396f9441d3b7bd4d'
p273
(I154
I2038
tp274
sS'1490b985d1bd935ac5973e648c207955'
p275
(I0
I0
tp276
sS'ba60ddef7a784f9d15793b264e107098'
p277
(I110
I2111
tp278
sS'ba8a0a7575e75d6c14167005020403a6'
p279
(I415
I4337
tp280
sS'6d5873bedcf09d9753c3c908ddf452af'
p281
(I295
I2893
tp282
sS'9120e3d36669937b08310ac9b2523550'
p283
(I184
I3026
tp284
sS'b0d2501202d406fd07ab84db6f751543'
p285
(I281
I2532
tp286
sS'41c74bff447d5397d817074168496fa9'
p287
(I63
I846
tp288
sS'f2955b34a4a459d9c328661444f4d7a0'
p289
(I255
I3319
tp290
sS'4905cc7a1396110c1a635c4e7b023de2'
p291
(I30
I284
tp292
sS'3bb08fb1b8b3d0d35bd70e1753840d2c'
p293
(I251
I3035
tp294
sS'717be9f4b9f1232c9302e3e3eff2239c'
p295
(I0
I0
tp296
sS'60b7e6f9392c51d9c5ac9322ffd55e34'
p297
(I463
I4927
tp298
sS'6929db7b4f31f715eb511d844a011b38'
p299
(I161
I2646
tp300
sS'2791aad00710bd046c2358e36687f9e0'
p301
(I40
I248
tp302
sS'7884fd1f622ff26469115316e9daf9eb'
p303
(I539
I3859
tp304
sS'4753ee601fd03f972db901b5c335d3c0'
p305
(I0
I0
tp306
sS'e97aa16d588d4b38df68c7eea39609ea'
p307
(I337
I3575
tp308
sS'3d363c460b501243b3cc01c8ef8c7e54'
p309
(I410
I4325
tp310
sS'066df9d2383e006d1bf69f0e27732988'
p311
(I434
I4101
tp312
sS'3ddc3d28ab03243984730b5a09efeb48'
p313
(I447
I4331
tp314
sS'd7494a26e610ec1f0b0171c755d4fef9'
p315
(I411
I3972
tp316
sS'db557d7d8315adfe66fa285ee2d5876a'
p317
(I52
I1017
tp318
sS'7223f159cf51aa7dfebf0eabe85c79fe'
p319
(I146
I1708
tp320
sS'f9aaf0e979eda888db209a8f457ce7d7'
p321
(I20
I659
tp322
sS'2aef5fe58e8206aefd313324178696c9'
p323
(I53
I747
tp324
sS'2d7492af9cb4952640c2a7c7bdfd0510'
p325
(I110
I1961
tp326
sS'459cac479aa5d1b353a8700668c284d2'
p327
(I212
I3300
tp328
sS'11a689d54c4af2394bc91b4003e527f3'
p329
(I391
I3781
tp330
sS'1db47c5c402644d97c51e020d472dffd'
p331
(I123
I2802
tp332
sS'33de079e6e90ae26e67de06ac1db9bdb'
p333
(I91
I1191
tp334
sS'3be3cfa5d33e6eb8fe57736317fed8d3'
p335
(I37
I464
tp336
sS'9286dd073b9ef429c97ba2426f626f3c'
p337
(I274
I2987
tp338
sS'd06938831492a48c70d30cebf98f7376'
p339
(I0
I0
tp340
sS'9e9ed6f48519eee134596bbcd3274364'
p341
(I150
I1358
tp342
sS'd912c51b671d209edc6672fe203dd345'
p343
(I13
I166
tp344
sS'419453e20c2a73147960a6602d014b46'
p345
(I337
I3581
tp346
sS'46bce687f790f4688a582da097b604ef'
p347
(I985
I2607
tp348
sS'8d3d3a9d09bea220b5a99945f57c2910'
p349
(I363
I3893
tp350
sS'cd0da710afd5760211b51fccf55cebc0'
p351
(I240
I2636
tp352
sS'e86428603dee9d01aa5f7abebb851ef7'
p353
(I193
I3202
tp354
sS'53a6d1bb405f70090c273ae932b9d37b'
p355
(I285
I3746
tp356
sS'3144ae112ee6cda80d9fa54c824f54db'
p357
(I0
I0
tp358
sS'62fce7e595e9d3b9255ba68bc0ca4f67'
p359
(I364
I3619
tp360
sS'15510d987ae1b8906090db1a62efc5f0'
p361
(I214
I2943
tp362
sS'255291fff1e306d3332da3464011ee91'
p363
(I282
I2863
tp364
sS'4061fe4e70fa836d2e5810165166ddcb'
p365
(I229
I2680
tp366
sS'064486fb93ed6edc4f4f1e67e63f80ca'
p367
(I79
I720
tp368
sS'99e4aebbe85cd43b556eb49858542e6d'
p369
(I337
I3428
tp370
sS'780a57a7ecdb4ecbdcaf20e0435de9ff'
p371
(I260
I3046
tp372
sS'0868068f24a5eeb517141bb58e531738'
p373
(I112
I1413
tp374
sS'f3ca834609deae606515ff1f9a13e16c'
p375
(I511
I3726
tp376
sS'8de2105c1c2af55efadd26c38d57a6d7'
p377
(I37
I688
tp378
sS'98d2fadb624ce637f63d00e46aca5fc7'
p379
(I26
I552
tp380
sS'5f60f27c9b62684dd18f4b3c58e6ce54'
p381
(I327
I3899
tp382
sS'60f601460f83a4adac3ee69528bea01c'
p383
(I6
I245
tp384
sS'0cd4619d5395966996a64d0dd25ab76a'
p385
(I465
I2005
tp386
sS'a127f04a582d64d2fc3a1d14390eccc5'
p387
(I33
I419
tp388
sS'bf64d7a11ad98d18951a96b2bd82f4f2'
p389
(I896
I2897
tp390
sS'3436004077b339b79d9df8e7b057b7cf'
p391
(I289
I2925
tp392
sS'47b9e169b20239e563053af72876a791'
p393
(I106
I2899
tp394
sS'a959267774764d936d94ee292e992fa0'
p395
(I5
I149
tp396
sS'5f29914eb034d37c58a4c06e8eae0bc9'
p397
(I29
I449
tp398
sS'8a7257f3de4a861a5f4ff05211c23f2a'
p399
(I293
I2858
tp400
sS'7cfe79b18ed7822cea15381e189cac9a'
p401
(I318
I3807
tp402
sS'5c7304d9543740c317a0d1e0b692b890'
p403
(I260
I2044
tp404
sS'80d92cf1ea27e001428c05bed7de7aae'
p405
(I110
I1658
tp406
sS'2f5b4f04c75499f11f8d5bf10f1508ee'
p407
(I47
I322
tp408
sS'611d21bbf8ba18cfedb76104c117ff76'
p409
(I405
I3483
tp410
sS'b7fcb87cfc30bd734d271b3c2a00a1ce'
p411
(I115
I1190
tp412
sS'e058844aedc87d48d3e87776dee5b348'
p413
(I294
I2748
tp414
sS'60959f926480ec1e4a3c8c41071779a1'
p415
(I17
I343
tp416
sS'e1b03a25e9d639ce79cd3779e117b60e'
p417
(I38
I370
tp418
sS'5c83a98f3d8627a98496d9bbcbb97c3f'
p419
(I336
I3445
tp420
sS'1cddde52f7a410427df4975fd837906f'
p421
(I23
I356
tp422
sS'47fe62a96d93fd6ba25efb25fe7e7069'
p423
(I245
I4144
tp424
sS'7aa419002c37d211fecd08bcbb3fc714'
p425
(I105
I721
tp426
sS'49bdb7f4175a6af1a20fb87610e938dd'
p427
(I647
I4090
tp428
sS'25870981b463d9b45361330190d60f53'
p429
(I139
I673
tp430
sS'0394cf313b58ea16e3776dab47042e5f'
p431
(I1561
I4209
tp432
sS'd55a840544dcbdaa40a72afa5ed94e2f'
p433
(I211
I2698
tp434
sS'11f686a3a2db1c5974e73d07088b4045'
p435
(I69
I757
tp436
sS'fde67e0b9c8072fcaa52c95f0964619f'
p437
(I442
I4206
tp438
sS'130f9ea58dcdaec12e6faf6d51aef8e9'
p439
(I26
I354
tp440
sS'b29383409886a8f4525b52eb55c7b2e7'
p441
(I393
I2668
tp442
sS'0ef219e0b58829a60b2332516489e95e'
p443
(I96
I998
tp444
sS'54db3923f033e1dd6a82222aa2604ab9'
p445
(I292
I3872
tp446
sS'7406e65cbf8858b9260f36676efdd590'
p447
(I58
I692
tp448
sS'596e9d456290a697768556b7138a6785'
p449
(I132
I1655
tp450
sS'74da671513474c0630cb254c3abc434f'
p451
(I153
I2242
tp452
sS'43fd2e9d7b3c55435a849de5c5c43f1b'
p453
(I31
I474
tp454
sS'b4bb7a11967b660ecc4f4ef1cf6b6827'
p455
(I348
I4015
tp456
sS'025caf45aaec8db680b23464b930e8bc'
p457
(I221
I2194
tp458
sS'fcd1dd36faf537bc4bbe81f2071f8a0b'
p459
(I132
I1635
tp460
sS'078242a7701728828d6d98cd42f3f48e'
p461
(I53
I729
tp462
sS'75470794aa1249218c8d5699018560ab'
p463
(I139
I2555
tp464
sS'c14f5f6eb08d47b72bc8dae3187aad75'
p465
(I23
I282
tp466
sS'4392ce5936db3591f713b0171ffd0e17'
p467
(I46
I273
tp468
sS'153a084dc32a339d356619232f3dea59'
p469
(I248
I2898
tp470
sS'52bf2acfb0403cd5557d7b77a4de93f8'
p471
(I140
I559
tp472
sS'd6f0e6c74ed8fb8972f704f046daf3e1'
p473
(I0
I0
tp474
sS'5a462f6ae94aa6db98cc3998694cf051'
p475
(I8
I122
tp476
sS'89e28784c0c0c2236124a934f54c4e04'
p477
(I8
I109
tp478
sS'201f19d94e26eb3737dea8ae5141dff3'
p479
(I458
I4279
tp480
sS'93ba37e2c4ecdf213ac11c17ad8f6659'
p481
(I75
I873
tp482
sS'215dc25e9f73daf636a93294e32b4f56'
p483
(I0
I0
tp484
sS'7558c64da7ef50a8213d98943238535d'
p485
(I313
I2854
tp486
sS'439c1284e6c3d9000f1ac2ac4df45641'
p487
(I682
I4503
tp488
sS'b4f536c8c69f0fa770a87a84df93ff00'
p489
(I399
I3927
tp490
sS'454904ba35745fd0499f229c4b3e851c'
p491
(I211
I3196
tp492
sS'fa294b42e0f15881bbb29812b5f51be8'
p493
(I393
I3950
tp494
sS'aa36a339f30cc056a8137180cdf5d4ef'
p495
(I20
I360
tp496
sS'9cd2cf92e17ea5ff443b5fdfc115f651'
p497
(I334
I3742
tp498
sS'97876a6b94536deb4c5583f9a756ab72'
p499
(I237
I3114
tp500
sS'9343a615899a7fbd94403d228463f26d'
p501
(I172
I1627
tp502
sS'a3e92f89da25918c2092124995357413'
p503
(I61
I672
tp504
sS'e669e24fa419cfa4dc1eac97179183ff'
p505
(I25
I474
tp506
sS'ff135897af8e6cf845783f70df56a7ca'
p507
(I419
I4042
tp508
sS'a8f097700706d240901444bd6bb1813f'
p509
(I1431
I3245
tp510
sS'01b8aa99619675cae4355aa8af09bd12'
p511
(I0
I0
tp512
sS'fe3e3e680ba647137f5b47fa931072b3'
p513
(I407
I2861
tp514
sS'bca317bab408efbfb850aaf055948e47'
p515
(I225
I3596
tp516
sS'623a80d7f12ba40bcfa0f02bda2623ba'
p517
(I58
I745
tp518
sS'b94c091c649fa9b7703a9f4a0ffb3304'
p519
(I322
I4398
tp520
sS'6f234b4a1744e80f260f5684433f8598'
p521
(I25
I472
tp522
sS'7f752af96266ae83b25cdeaa89c215d5'
p523
(I183
I2080
tp524
sS'5c23cde33163f2ad77c2e7a63814811b'
p525
(I268
I3544
tp526
sS'9f4fe89a809a7e3225be7537ef0eba9c'
p527
(I481
I3523
tp528
sS'491f51cc73a8136a66ecfa5349567d08'
p529
(I177
I1857
tp530
sS'7a9c09bc841cddf568c10203a19bbee8'
p531
(I554
I1717
tp532
sS'73d39b8188e8ce968192ca6e993a8f12'
p533
(I284
I2325
tp534
sS'960c08e2ef0351c0bb50e4a109246880'
p535
(I38
I396
tp536
sS'90fa8913485a500e43dc5913aebdfaa6'
p537
(I452
I4519
tp538
sS'40b8af7721fd105d0f5ecb5dad74a991'
p539
(I7
I90
tp540
sS'19a9a1af56559b5d299fae4cbac79a0f'
p541
(I7
I108
tp542
sS'ffe80a44666c1d12f61d0ad47499eb1e'
p543
(I51
I499
tp544
sS'88d1f93972e3c4462b85bc2fa7a9eaae'
p545
(I41
I683
tp546
sS'957dc24791e83a8f9facd669ebdfab40'
p547
(I352
I3749
tp548
sS'b040812b4f65cc449ec54699ac764181'
p549
(I133
I2071
tp550
sS'6a37a45999b35bbdd1bcac74f1243be3'
p551
(I216
I3418
tp552
sS'2c3b9d59ebd9cb7abe4665754b1dbd9c'
p553
(I101
I2378
tp554
sS'd30d7f616657ab089bade1ca4f8c62e7'
p555
(I67
I776
tp556
sS'c7f27de09c6515fd61f8c97cf79ac03a'
p557
(I267
I3599
tp558
sS'bc8a55a8845ffd0706de85b6b0bb83b2'
p559
(I321
I3793
tp560
sS'bcc524d52274108ab6a17810bb2ea695'
p561
(I392
I3987
tp562
sS'e390535dd8f6e7b8f56c1f45aa365760'
p563
(I305
I3263
tp564
sS'30d04c264517f10e8bc1ff1fa85cc171'
p565
(I472
I2464
tp566
sS'1b5fce78bd79817764b781294eb57455'
p567
(I363
I3898
tp568
sS'ae50c06b7772995439999108e8a94784'
p569
(I324
I1744
tp570
sS'88933cee52db6f5c0c0f04d05fcaf614'
p571
(I113
I2098
tp572
sS'a1b53e143dcf8699338077548906cb4b'
p573
(I59
I871
tp574
sS'1d607940be677919cd6f08e11c7bd36f'
p575
(I20
I393
tp576
sS'98235f2c239b119c166a549b19b52abf'
p577
(I302
I3014
tp578
sS'9354e4ff65d876fbf0bc17ac650c7054'
p579
(I80
I1445
tp580
sS'de0f088339eda6d3751034d06ea5845f'
p581
(I17
I267
tp582
sS'ebfe51690037acec510b6d10d4e58ea5'
p583
(I523
I4624
tp584
sS'6b529117cf7016c19396748c42a0f874'
p585
(I49
I314
tp586
sS'705be15bea0164053700e4383a7fdd21'
p587
(I225
I2915
tp588
sS'8bdcb9d1c008715c740c147dd0d5431c'
p589
(I1959
I3818
tp590
sS'd3fbad0a96845119d5dbd0e772c9fe53'
p591
(I47
I696
tp592
sS'530b257442c7d1b85bb7aa4208321024'
p593
(I88
I1374
tp594
sS'b00d4a7efad641297d13e214a80a00c0'
p595
(I372
I4078
tp596
sS'9cd9ebf839bf6c5989644b464423cf89'
p597
(I90
I573
tp598
sS'c3aff41dc71ebbf69d5e15c4f4584aee'
p599
(I319
I3599
tp600
sS'1bf95c355c40496cf62e2edb570ae5de'
p601
(I18
I423
tp602
sS'c4aa5802bf8371620331a83d9de85951'
p603
(I192
I733
tp604
sS'0da3490da6546ea6fca9b9a2af035647'
p605
(I378
I3768
tp606
sS'95de19ee54840e91536abf405e9b7114'
p607
(I192
I2557
tp608
sS'c8991753dc81f5ec9bf1b8a7137aa6a2'
p609
(I28
I306
tp610
sS'85682013120aee589c5a11b83233ae44'
p611
(I218
I4348
tp612
sS'd5cf33e5fbfcb2571c1bf03cfbb04872'
p613
(I226
I3510
tp614
sS'd865063bfe8c8dd59b4d542b98e028d1'
p615
(I80
I1038
tp616
sS'f18d7e12e5b5ea1ef326a3cb7ac93af0'
p617
(I135
I1927
tp618
sS'491750704cf57fa285716407272c5a56'
p619
(I993
I3185
tp620
sS'ddd2f9d10aab42acefcfb55ca5572bf7'
p621
(I44
I642
tp622
sS'ddee9ef7cd0ca20b9fb02c3e0fca4b6c'
p623
(I566
I3811
tp624
sS'5ed6b96a534cbddc055adae2db5c29a2'
p625
(I342
I3490
tp626
sS'a6d5c1dc7657c9fd0bfb87bdc0376355'
p627
(I7
I173
tp628
sS'ac9bec22ac3b5c33abd7299845283f9f'
p629
(I16
I217
tp630
sS'ca75d60a9ff2c98b575535212f338b6a'
p631
(I499
I5185
tp632
sS'e998c03854f361533564e69eddc11a79'
p633
(I319
I3490
tp634
sS'546e4438c2c05ac53b819a9596c280fc'
p635
(I218
I1044
tp636
sS'd838b5d5c3cd62b2ad503b53cbc1f90f'
p637
(I4
I159
tp638
sS'52aaad35ca8012830a81d2f5a0799df7'
p639
(I161
I2462
tp640
sS'52dc60bfa48c6f31d8ccf8124abe5339'
p641
(I139
I2513
tp642
sS'465c6477241edb9523d5110ed98f151c'
p643
(I23
I576
tp644
sS'29b30793758d86f7106cd2f075389aeb'
p645
(I40
I657
tp646
sS'76b6283d82da63a42ae8a42e7da628ec'
p647
(I171
I2988
tp648
sS'6e602536dfb72bb2c881fd25e6a92f46'
p649
(I24
I331
tp650
sS'8a72e07a0c26977ba7677614c1b215d3'
p651
(I249
I2739
tp652
sS'7c33eec7eb8a8f25ce02dc6289c700c0'
p653
(I13
I114
tp654
sS'22eaab35cdaada21db43d2bbf100bfb5'
p655
(I27
I292
tp656
sS'c9eab45ae20780123384cceb6679946c'
p657
(I29
I496
tp658
sS'b84141d84804efbc9f6760f3df19b6b9'
p659
(I239
I2160
tp660
sS'8a8285c8744a9c7f759a69a047437bba'
p661
(I73
I1897
tp662
sS'aa9be0abea3bbfe94d50f68bc1499bac'
p663
(I68
I1633
tp664
sS'554b6684f8ff7bd40b89696d70226ec9'
p665
(I12
I191
tp666
sS'ba3a6aef89897131e4301c9f3c91a76c'
p667
(I249
I3366
tp668
sS'79a78fcce2bb2235c640192dbc842942'
p669
(I22
I281
tp670
sS'da115f57c51dfd62696dc17819c89c69'
p671
(I26
I555
tp672
sS'c7ad6c96208a6ecf83542130321074ad'
p673
(I8
I305
tp674
sS'871f9e9590b7102a0c5021ea30f388d2'
p675
(I674
I6601
tp676
sS'7760f37131a13c5c0e9c4b7aa7f6ba5b'
p677
(I13
I205
tp678
sS'52d582497ed56183efaf715e3988b628'
p679
(I7
I184
tp680
sS'4de662e0e342a9ded396c7415de91a56'
p681
(I148
I1906
tp682
sS'7ac5b529d83a03ad9dc192c32943fd0a'
p683
(I93
I1241
tp684
sS'a85114b4570c74d002b9e86c64147146'
p685
(I5
I138
tp686
sS'15da7a31e797260960cbf04350085241'
p687
(I12
I181
tp688
sS'82afe6d0e442474805f60abaae33b16d'
p689
(I298
I3188
tp690
sS'd098f4dc43d5c4768056c2dc8e1b5328'
p691
(I410
I4195
tp692
sS'a837091210532f5e37916bba89654b2d'
p693
(I295
I3885
tp694
sS'f97b2cf731bc770023edc37b30c95edd'
p695
(I63
I1005
tp696
sS'054982b5dbe32c7becd47ff10c6c55be'
p697
(I397
I3108
tp698
sS'e8bf104a939e52e12f33bbdd95625343'
p699
(I19
I486
tp700
sS'1e51e1f0ccf130be68b42fdaf201f40e'
p701
(I241
I3582
tp702
sS'71c28d43f222e37b10a8bb25c32f769b'
p703
(I364
I4292
tp704
sS'00db29c2dc1d87c8f07b72d753f7f2c0'
p705
(I354
I3983
tp706
sS'dd44957ee74db121a397cab2b4080379'
p707
(I175
I2498
tp708
sS'e827776a1e77b7bee940b485c5a4b5b7'
p709
(I105
I363
tp710
sS'07d5234843a6d62ae0db4dbcca854c43'
p711
(I265
I3304
tp712
sS'a69ad6efd8ad2bdd8f82cff2a211246c'
p713
(I407
I3397
tp714
sS'9f66d67322dbc62a5b6ff42867bc3fe1'
p715
(I253
I3096
tp716
sS'9c66f13c8038d9cec5fd2a754d959c2f'
p717
(I140
I1671
tp718
sS'25535d379c3ab7f473305ceace304e8c'
p719
(I283
I2938
tp720
sS'3316270c2e911fc9ee491dbad386ed4e'
p721
(I246
I1783
tp722
sS'7d907696792f2ffebe9eb6fc7448ee4f'
p723
(I322
I3517
tp724
sS'9a2f7bc0677bca12725e25d12dae66d9'
p725
(I795
I4503
tp726
sS'2f13a205f26f09c92c2d16633087e5e2'
p727
(I333
I3574
tp728
sS'44be30b800f13facaed7cda823976bf1'
p729
(I244
I1660
tp730
sS'f18213b41bb7311717493a931dc32296'
p731
(I213
I3614
tp732
sS'a55163ccf6ce0bcd13c80ee7e5ceebcd'
p733
(I99
I1144
tp734
sS'1b50196b8436f77669bdee925a2c4dfa'
p735
(I732
I2932
tp736
sS'a28f8dd03948a47b1144ad5df6ccc483'
p737
(I145
I1088
tp738
sS'81fd1684d9e48e7dfb3f389e4f0781db'
p739
(I272
I2596
tp740
sS'1fb2a7e3c8ecb108e058848318a0f0c9'
p741
(I339
I4829
tp742
sS'4024d8b2b57ca979fa44ed26161a09a9'
p743
(I270
I3174
tp744
sS'bdf01756be5835c7085edc652e5e166b'
p745
(I383
I3734
tp746
sS'e2f4c96d4eb90498ded022b3041fdbce'
p747
(I294
I2639
tp748
sS'9f5ffb7a6a0173156193d52d831eaacf'
p749
(I116
I1849
tp750
sS'515618c30574293240c3b346bdf04b5f'
p751
(I6
I203
tp752
sS'6300ad90bbcee31349ffa0a071ca2041'
p753
(I198
I1781
tp754
sS'd9ee6cc0a5712fbe4c4d06465ab5b939'
p755
(I317
I2615
tp756
sS'fb5fbb5cef0fd5f64d031b4a39bc4dec'
p757
(I182
I3074
tp758
sS'42e11d56798c7d2eeb401905fd2c43be'
p759
(I227
I2962
tp760
sS'361a5b6f327d74344f0f8c4cd7c27970'
p761
(I485
I4100
tp762
sS'29cdd0433aa9743c6f26ef88e45dd465'
p763
(I113
I1148
tp764
sS'83ff5fb44444da7a570577d8cca44cb9'
p765
(I537
I4851
tp766
sS'b389d717abaff153ae94d2c27d58ce21'
p767
(I28
I422
tp768
sS'd320d1ee442f41642f67da69343c1b02'
p769
(I274
I3178
tp770
sS'd9386a23b5f1350819c95546acd3183b'
p771
(I224
I2157
tp772
sS'9329caf2caea60408f9991da66026e3d'
p773
(I604
I1855
tp774
sS'48b8caa90e5481c56928e08fc100b8ad'
p775
(I205
I3159
tp776
sS'61244154e362cece7e2d3c1139948bde'
p777
(I367
I3664
tp778
sS'3c3a39da1dd56313156d3f6c1a37a66e'
p779
(I368
I3673
tp780
sS'5f7456d58b542c50be788ae5f20326ba'
p781
(I296
I2623
tp782
sS'bf4240deea2c8a777d129e48fcba470d'
p783
(I253
I3300
tp784
sS'0540e2e4345d415ee85a6fc7314f4536'
p785
(I35
I1021
tp786
sS'dd066409a86e37f7ba41ed32fad5fed9'
p787
(I12
I156
tp788
sS'4a9c6df0b335c37ef60611c592c3d154'
p789
(I252
I3506
tp790
sS'1ded9ce40c1121d88ce1e1d3c5386d44'
p791
(I53
I630
tp792
sS'674e327673e224ce6f2c3bee658ac14a'
p793
(I348
I2206
tp794
sS'b10435d02eb67851643ed7acc67f54c0'
p795
(I107
I708
tp796
sS'49182c21ede1dd536d3c2f380685c6df'
p797
(I609
I4012
tp798
sS'fd5b4c852ce49baef7a888198853917c'
p799
(I327
I3883
tp800
sS'638475f75a7f842d4ce14e690012a5cf'
p801
(I111
I1610
tp802
sS'0a9e35fd6f123137d585a482f2484d8e'
p803
(I411
I2985
tp804
sS'247785669a51715032b120566812f2a9'
p805
(I211
I1929
tp806
sS'19c58d966c96158d1f04032878cba482'
p807
(I40
I536
tp808
sS'3441a01d2d0c4dfe72216b104a1eba95'
p809
(I436
I3664
tp810
sS'6733b2957179358024cc5c493f28924a'
p811
(I35
I401
tp812
sS'af2306c5c15c438adf1fc01cb3bc7504'
p813
(I6
I147
tp814
sS'7ad34b9e9a8753cf98af03f04d195a45'
p815
(I47
I555
tp816
sS'278578135bfa56ada28f14085db9307b'
p817
(I7
I155
tp818
sS'c7a67d7a055820d3239f0e9d89ed8ef0'
p819
(I309
I3113
tp820
sS'c6d5c510157faec583465dc2f2f7725d'
p821
(I199
I3317
tp822
sS'cef70b072cca39a520d5c01b88810872'
p823
(I425
I3728
tp824
sS'cefc4df9c5692bdf3d27d2195211c637'
p825
(I302
I4072
tp826
sS'1575e7e1e9b9783b6376c7320dd7658d'
p827
(I472
I4301
tp828
sS'ebe3d72e3e5ee4a2bb39ebe437ad1235'
p829
(I31
I958
tp830
sS'1e654a67e38ea72384781aa29ebda03e'
p831
(I1048
I3537
tp832
sS'a242dd9bb6e0125a8442b762d902ffd4'
p833
(I188
I3189
tp834
sS'5ecd708037d82c153b3a591c20d38969'
p835
(I17
I225
tp836
sS'3de105c51ab70cbf61df2b36fb5a0fd4'
p837
(I128
I2458
tp838
sS'f989ee76f94165c349bfebfe2f2e35f5'
p839
(I188
I1306
tp840
sS'6c2da2695dc7f933c425842d9a0b364e'
p841
(I559
I4935
tp842
sS'1615a8f53c2f674adbec6829fa99e52e'
p843
(I426
I3569
tp844
sS'4687f84cb54bda94350da7f67e51a823'
p845
(I560
I3939
tp846
sS'db0211bc38ed3c093992dc5128173054'
p847
(I54
I692
tp848
sS'a72ba4d0b435894d77745d8f3a779337'
p849
(I388
I3604
tp850
sS'de7ec050322b2cb28f5f138747e937b5'
p851
(I246
I2917
tp852
sS'e3a56670ae34a61476c1ebb5fab5fbd2'
p853
(I18
I187
tp854
sS'f09f1914be5fb34479264b1117b41508'
p855
(I492
I2726
tp856
sS'c49d67f0ed88acd66484c5db337500a8'
p857
(I203
I3054
tp858
sS'60d21d384ea52074f685904742b8cd4e'
p859
(I104
I1237
tp860
sS'5ee4f3885e087a57d20ce4545d0f15a0'
p861
(I449
I3609
tp862
sS'115e7b931be3d52d35cb8ce2da09a1d7'
p863
(I261
I3265
tp864
sS'c9a9d8468da2e505fdc64bb0c7d90616'
p865
(I290
I1960
tp866
sS'c302071b69a64d5107d2441036e48d9e'
p867
(I135
I1450
tp868
sS'db0a258fa0f6e8b6e008ab9f62a4b58d'
p869
(I161
I2207
tp870
sS'b4b03d72bcf52773ec6b7c0a91ccfe1e'
p871
(I96
I2474
tp872
s.